target datalayout = "e-m:e-p270:32:32-p271:32:32-p272:64:64-i64:64-i128:128-f80:128-n8:16:32:64-S128"
target triple = "x86_64-pc-linux-gnu"

%struct.lua_State = type { %struct.GCRef, i8, i8, i8, i8, %struct.MRef, %struct.GCRef, ptr, ptr, %struct.MRef, %struct.MRef, %struct.GCRef, %struct.GCRef, ptr, i32 }
%struct.MRef = type { i64 }
%struct.GCRef = type { i64 }
%union.TValue = type { i64 }
%struct.GCstr = type { %struct.GCRef, i8, i8, i8, i8, i32, i32, i32 }
%struct.GCudata = type { %struct.GCRef, i8, i8, i8, i8, %struct.GCRef, i32, %struct.GCRef, i32 }
%struct.IOFileUD = type { ptr, i32 }
%struct.GCfuncC = type { %struct.GCRef, i8, i8, i8, i8, %struct.GCRef, %struct.GCRef, %struct.MRef, ptr, [1 x %union.TValue] }

@.str.14 = private unnamed_addr constant [2 x i8] c"r\00", align 1

; Function Attrs: nounwind uwtable
define internal ptr @io_file_new(ptr noundef %0) #0 {
  %2 = alloca ptr, align 8
  %3 = alloca ptr, align 8
  %4 = alloca ptr, align 8
  store ptr %0, ptr %2, align 8, !tbaa !4
  call void @llvm.lifetime.start.p0(i64 8, ptr %3) #10
  %5 = load ptr, ptr %2, align 8, !tbaa !4
  %6 = call ptr @lua_newuserdata(ptr noundef %5, i64 noundef 16)
  store ptr %6, ptr %3, align 8, !tbaa !25
  call void @llvm.lifetime.start.p0(i64 8, ptr %4) #10
  %7 = load ptr, ptr %2, align 8, !tbaa !4
  %8 = getelementptr inbounds nuw %struct.lua_State, ptr %7, i32 0, i32 8
  %9 = load ptr, ptr %8, align 8, !tbaa !9
  %10 = getelementptr inbounds %union.TValue, ptr %9, i64 -1
  %11 = getelementptr inbounds nuw %struct.GCRef, ptr %10, i32 0, i32 0
  %12 = load i64, ptr %11, align 8, !tbaa !22
  %13 = and i64 %12, 140737488355327
  %14 = inttoptr i64 %13 to ptr
  store ptr %14, ptr %4, align 8, !tbaa !27
  %15 = load ptr, ptr %4, align 8, !tbaa !27
  %16 = getelementptr inbounds nuw %struct.GCudata, ptr %15, i32 0, i32 3
  store i8 1, ptr %16, align 2, !tbaa !29
  %17 = load ptr, ptr %2, align 8, !tbaa !4
  %18 = getelementptr inbounds nuw %struct.lua_State, ptr %17, i32 0, i32 7
  %19 = load ptr, ptr %18, align 8, !tbaa !35
  %20 = getelementptr inbounds %union.TValue, ptr %19, i64 -2
  %21 = getelementptr inbounds nuw %struct.GCRef, ptr %20, i32 0, i32 0
  %22 = load i64, ptr %21, align 8, !tbaa !22
  %23 = and i64 %22, 140737488355327
  %24 = inttoptr i64 %23 to ptr
  %25 = getelementptr inbounds nuw %struct.GCfuncC, ptr %24, i32 0, i32 5
  %26 = getelementptr inbounds nuw %struct.GCRef, ptr %25, i32 0, i32 0
  %27 = load i64, ptr %26, align 8, !tbaa !22
  %28 = load ptr, ptr %4, align 8, !tbaa !27
  %29 = getelementptr inbounds nuw %struct.GCudata, ptr %28, i32 0, i32 7
  %30 = getelementptr inbounds nuw %struct.GCRef, ptr %29, i32 0, i32 0
  store i64 %27, ptr %30, align 8, !tbaa !31
  %31 = load ptr, ptr %3, align 8, !tbaa !25
  %32 = getelementptr inbounds nuw %struct.IOFileUD, ptr %31, i32 0, i32 0
  store ptr null, ptr %32, align 8, !tbaa !32
  %33 = load ptr, ptr %3, align 8, !tbaa !25
  %34 = getelementptr inbounds nuw %struct.IOFileUD, ptr %33, i32 0, i32 1
  store i32 0, ptr %34, align 8, !tbaa !34
  %35 = load ptr, ptr %3, align 8, !tbaa !25
  call void @llvm.lifetime.end.p0(i64 8, ptr %4) #10
  call void @llvm.lifetime.end.p0(i64 8, ptr %3) #10
  ret ptr %35
}

; Function Attrs: nounwind uwtable
define internal i32 @lj_cf_io_open(ptr noundef %0) #0 {
  %2 = alloca ptr, align 8
  %3 = alloca ptr, align 8
  %4 = alloca ptr, align 8
  %5 = alloca ptr, align 8
  %6 = alloca ptr, align 8
  store ptr %0, ptr %2, align 8, !tbaa !4
  call void @llvm.lifetime.start.p0(i64 8, ptr %3) #10
  %7 = load ptr, ptr %2, align 8, !tbaa !4
  %8 = call ptr @lj_lib_checkstr(ptr noundef %7, i32 noundef 1)
  %9 = getelementptr inbounds %struct.GCstr, ptr %8, i64 1
  store ptr %9, ptr %3, align 8, !tbaa !23
  call void @llvm.lifetime.start.p0(i64 8, ptr %4) #10
  %10 = load ptr, ptr %2, align 8, !tbaa !4
  %11 = call ptr @lj_lib_optstr(ptr noundef %10, i32 noundef 2)
  store ptr %11, ptr %4, align 8, !tbaa !53
  call void @llvm.lifetime.start.p0(i64 8, ptr %5) #10
  %12 = load ptr, ptr %4, align 8, !tbaa !53
  %13 = icmp ne ptr %12, null
  br i1 %13, label %14, label %17

14:                                               ; preds = %1
  %15 = load ptr, ptr %4, align 8, !tbaa !53
  %16 = getelementptr inbounds %struct.GCstr, ptr %15, i64 1
  br label %18

17:                                               ; preds = %1
  br label %18

18:                                               ; preds = %17, %14
  %19 = phi ptr [ %16, %14 ], [ @.str.14, %17 ]
  store ptr %19, ptr %5, align 8, !tbaa !23
  call void @llvm.lifetime.start.p0(i64 8, ptr %6) #10
  %20 = load ptr, ptr %2, align 8, !tbaa !4
  %21 = call ptr @io_file_new(ptr noundef %20)
  store ptr %21, ptr %6, align 8, !tbaa !25
  %22 = load ptr, ptr %3, align 8, !tbaa !23
  %23 = load ptr, ptr %5, align 8, !tbaa !23
  %24 = call noalias ptr @fopen64(ptr noundef %22, ptr noundef %23)
  %25 = load ptr, ptr %6, align 8, !tbaa !25
  %26 = getelementptr inbounds nuw %struct.IOFileUD, ptr %25, i32 0, i32 0
  store ptr %24, ptr %26, align 8, !tbaa !32
  %27 = load ptr, ptr %6, align 8, !tbaa !25
  %28 = getelementptr inbounds nuw %struct.IOFileUD, ptr %27, i32 0, i32 0
  %29 = load ptr, ptr %28, align 8, !tbaa !32
  %30 = icmp ne ptr %29, null
  br i1 %30, label %31, label %32

31:                                               ; preds = %18
  br label %36

32:                                               ; preds = %18
  %33 = load ptr, ptr %2, align 8, !tbaa !4
  %34 = load ptr, ptr %3, align 8, !tbaa !23
  %35 = call i32 @luaL_fileresult(ptr noundef %33, i32 noundef 0, ptr noundef %34)
  br label %36

36:                                               ; preds = %32, %31
  %37 = phi i32 [ 1, %31 ], [ %35, %32 ]
  call void @llvm.lifetime.end.p0(i64 8, ptr %6) #10
  call void @llvm.lifetime.end.p0(i64 8, ptr %5) #10
  call void @llvm.lifetime.end.p0(i64 8, ptr %4) #10
  call void @llvm.lifetime.end.p0(i64 8, ptr %3) #10
  ret i32 %37
}