; Function Attrs: nounwind uwtable
define internal i32 @lj_cf_io_open(ptr noundef %0) #0 {
  %2 = tail call ptr @lj_lib_checkstr(ptr noundef %0, i32 noundef 1) #10
  %3 = getelementptr inbounds nuw i8, ptr %2, i64 24
  %4 = tail call ptr @lj_lib_optstr(ptr noundef %0, i32 noundef 2) #10
  %.not = icmp eq ptr %4, null
  %5 = getelementptr inbounds nuw i8, ptr %4, i64 24
  %6 = select i1 %.not, ptr @.str.14, ptr %5
  %7 = tail call ptr @lua_newuserdata(ptr noundef %0, i64 noundef 16) #10
  %8 = getelementptr inbounds nuw i8, ptr %0, i64 40
  %9 = load ptr, ptr %8, align 8, !tbaa !4
  %10 = getelementptr inbounds i8, ptr %9, i64 -8
  %11 = load i64, ptr %10, align 8, !tbaa !14
  %12 = and i64 %11, 140737488355327
  %13 = inttoptr i64 %12 to ptr
  %14 = getelementptr inbounds nuw i8, ptr %13, i64 10
  store i8 1, ptr %14, align 2, !tbaa !17
  %15 = getelementptr inbounds nuw i8, ptr %0, i64 32
  %16 = load ptr, ptr %15, align 8, !tbaa !25
  %17 = getelementptr inbounds i8, ptr %16, i64 -16
  %18 = load i64, ptr %17, align 8, !tbaa !14
  %19 = and i64 %18, 140737488355327
  %20 = inttoptr i64 %19 to ptr
  %21 = getelementptr inbounds nuw i8, ptr %20, i64 16
  %22 = load i64, ptr %21, align 8, !tbaa !14
  %23 = getelementptr inbounds nuw i8, ptr %13, i64 32
  store i64 %22, ptr %23, align 8, !tbaa !19
  store ptr null, ptr %7, align 8, !tbaa !20
  %24 = getelementptr inbounds nuw i8, ptr %7, i64 8
  store i32 0, ptr %24, align 8, !tbaa !22
  %25 = tail call noalias ptr @fopen64(ptr noundef nonnull %3, ptr noundef nonnull %6)
  store ptr %25, ptr %7, align 8, !tbaa !20
  %.not11 = icmp eq ptr %25, null
  br i1 %.not11, label %26, label %28

26:                                               ; preds = %1
  %27 = tail call i32 @luaL_fileresult(ptr noundef nonnull %0, i32 noundef 0, ptr noundef nonnull %3) #10
  br label %28

28:                                               ; preds = %1, %26
  %29 = phi i32 [ %27, %26 ], [ 1, %1 ]
  ret i32 %29
}